target datalayout = "e-m:e-p270:32:32-p271:32:32-p272:64:64-i64:64-i128:128-f80:128-n8:16:32:64-S128"
target triple = "x86_64-pc-linux-gnu"

%"class.icu_77::number::impl::DecimalQuantity" = type <{ %"class.icu_77::IFixedDecimal", i8, [3 x i8], i32, i32, i8, i8, [2 x i8], double, i32, i32, i32, i32, %union.anon, i8, i8, [6 x i8] }>
%"class.icu_77::IFixedDecimal" = type { ptr }
%union.anon = type { %struct.anon }
%struct.anon = type { ptr, i32 }

; Function Attrs: mustprogress uwtable
define void @_ZN6icu_776number4impl15DecimalQuantity14ensureCapacityEi(ptr noundef nonnull align 8 dereferenceable(66) %0, i32 noundef %1) #1 align 2 {
  %3 = alloca ptr, align 8
  %4 = alloca i32, align 4
  %5 = alloca i32, align 4
  %6 = alloca ptr, align 8
  store ptr %0, ptr %3, align 8, !tbaa !25
  store i32 %1, ptr %4, align 4, !tbaa !14
  %7 = load ptr, ptr %3, align 8
  %8 = load i32, ptr %4, align 4, !tbaa !14
  %9 = icmp eq i32 %8, 0
  br i1 %9, label %10, label %11

10:                                               ; preds = %2
  br label %83

11:                                               ; preds = %2
  call void @llvm.lifetime.start.p0(i64 4, ptr %5) #14
  %12 = getelementptr inbounds nuw %"class.icu_77::number::impl::DecimalQuantity", ptr %7, i32 0, i32 14
  %13 = load i8, ptr %12, align 8, !tbaa !37, !range !40, !noundef !41
  %14 = trunc i8 %13 to i1
  br i1 %14, label %15, label %19

15:                                               ; preds = %11
  %16 = getelementptr inbounds nuw %"class.icu_77::number::impl::DecimalQuantity", ptr %7, i32 0, i32 13
  %17 = getelementptr inbounds nuw %struct.anon, ptr %16, i32 0, i32 1
  %18 = load i32, ptr %17, align 8, !tbaa !42
  br label %20

19:                                               ; preds = %11
  br label %20

20:                                               ; preds = %19, %15
  %21 = phi i32 [ %18, %15 ], [ 0, %19 ]
  store i32 %21, ptr %5, align 4, !tbaa !14
  %22 = getelementptr inbounds nuw %"class.icu_77::number::impl::DecimalQuantity", ptr %7, i32 0, i32 14
  %23 = load i8, ptr %22, align 8, !tbaa !37, !range !40, !noundef !41
  %24 = trunc i8 %23 to i1
  br i1 %24, label %41, label %25

25:                                               ; preds = %20
  %26 = load i32, ptr %4, align 4, !tbaa !14
  %27 = sext i32 %26 to i64
  %28 = mul i64 %27, 1
  %29 = call noalias ptr @uprv_malloc_77(i64 noundef %28) #15
  %30 = getelementptr inbounds nuw %"class.icu_77::number::impl::DecimalQuantity", ptr %7, i32 0, i32 13
  %31 = getelementptr inbounds nuw %struct.anon, ptr %30, i32 0, i32 0
  store ptr %29, ptr %31, align 8, !tbaa !42
  %32 = load i32, ptr %4, align 4, !tbaa !14
  %33 = getelementptr inbounds nuw %"class.icu_77::number::impl::DecimalQuantity", ptr %7, i32 0, i32 13
  %34 = getelementptr inbounds nuw %struct.anon, ptr %33, i32 0, i32 1
  store i32 %32, ptr %34, align 8, !tbaa !42
  %35 = getelementptr inbounds nuw %"class.icu_77::number::impl::DecimalQuantity", ptr %7, i32 0, i32 13
  %36 = getelementptr inbounds nuw %struct.anon, ptr %35, i32 0, i32 0
  %37 = load ptr, ptr %36, align 8, !tbaa !42
  %38 = load i32, ptr %4, align 4, !tbaa !14
  %39 = sext i32 %38 to i64
  %40 = mul i64 %39, 1
  call void @llvm.memset.p0.i64(ptr align 1 %37, i8 0, i64 %40, i1 false)
  br label %81

41:                                               ; preds = %20
  %42 = load i32, ptr %5, align 4, !tbaa !14
  %43 = load i32, ptr %4, align 4, !tbaa !14
  %44 = icmp slt i32 %42, %43
  br i1 %44, label %45, label %80

45:                                               ; preds = %41
  call void @llvm.lifetime.start.p0(i64 8, ptr %6) #14
  %46 = load i32, ptr %4, align 4, !tbaa !14
  %47 = mul nsw i32 %46, 2
  %48 = sext i32 %47 to i64
  %49 = mul i64 %48, 1
  %50 = call noalias ptr @uprv_malloc_77(i64 noundef %49) #15
  store ptr %50, ptr %6, align 8, !tbaa !17
  br label %51

51:                                               ; preds = %45
  %52 = load ptr, ptr %6, align 8, !tbaa !17
  %53 = getelementptr inbounds nuw %"class.icu_77::number::impl::DecimalQuantity", ptr %7, i32 0, i32 13
  %54 = getelementptr inbounds nuw %struct.anon, ptr %53, i32 0, i32 0
  %55 = load ptr, ptr %54, align 8, !tbaa !42
  %56 = load i32, ptr %5, align 4, !tbaa !14
  %57 = sext i32 %56 to i64
  %58 = mul i64 %57, 1
  call void @llvm.memcpy.p0.p0.i64(ptr align 1 %52, ptr align 1 %55, i64 %58, i1 false)
  br label %59

59:                                               ; preds = %51
  br label %60

60:                                               ; preds = %59
  %61 = load ptr, ptr %6, align 8, !tbaa !17
  %62 = load i32, ptr %5, align 4, !tbaa !14
  %63 = sext i32 %62 to i64
  %64 = getelementptr inbounds i8, ptr %61, i64 %63
  %65 = load i32, ptr %4, align 4, !tbaa !14
  %66 = load i32, ptr %5, align 4, !tbaa !14
  %67 = sub nsw i32 %65, %66
  %68 = sext i32 %67 to i64
  %69 = mul i64 %68, 1
  call void @llvm.memset.p0.i64(ptr align 1 %64, i8 0, i64 %69, i1 false)
  %70 = getelementptr inbounds nuw %"class.icu_77::number::impl::DecimalQuantity", ptr %7, i32 0, i32 13
  %71 = getelementptr inbounds nuw %struct.anon, ptr %70, i32 0, i32 0
  %72 = load ptr, ptr %71, align 8, !tbaa !42
  call void @uprv_free_77(ptr noundef %72)
  %73 = load ptr, ptr %6, align 8, !tbaa !17
  %74 = getelementptr inbounds nuw %"class.icu_77::number::impl::DecimalQuantity", ptr %7, i32 0, i32 13
  %75 = getelementptr inbounds nuw %struct.anon, ptr %74, i32 0, i32 0
  store ptr %73, ptr %75, align 8, !tbaa !42
  %76 = load i32, ptr %4, align 4, !tbaa !14
  %77 = mul nsw i32 %76, 2
  %78 = getelementptr inbounds nuw %"class.icu_77::number::impl::DecimalQuantity", ptr %7, i32 0, i32 13
  %79 = getelementptr inbounds nuw %struct.anon, ptr %78, i32 0, i32 1
  store i32 %77, ptr %79, align 8, !tbaa !42
  call void @llvm.lifetime.end.p0(i64 8, ptr %6) #14
  br label %80

80:                                               ; preds = %60, %41
  br label %81

81:                                               ; preds = %80, %25
  %82 = getelementptr inbounds nuw %"class.icu_77::number::impl::DecimalQuantity", ptr %7, i32 0, i32 14
  store i8 1, ptr %82, align 8, !tbaa !37
  call void @llvm.lifetime.end.p0(i64 4, ptr %5) #14
  br label %83

83:                                               ; preds = %81, %10
  ret void
}

; Function Attrs: mustprogress uwtable
define void @_ZN6icu_776number4impl15DecimalQuantity14ensureCapacityEv(ptr noundef nonnull align 8 dereferenceable(66) %0) #1 align 2 {
  %2 = alloca ptr, align 8
  store ptr %0, ptr %2, align 8, !tbaa !25
  %3 = load ptr, ptr %2, align 8
  call void @_ZN6icu_776number4impl15DecimalQuantity14ensureCapacityEi(ptr noundef nonnull align 8 dereferenceable(66) %3, i32 noundef 40)
  ret void
}