; Function Attrs: mustprogress uwtable
define void @_ZN6icu_776number4impl15DecimalQuantity14ensureCapacityEv(ptr noundef nonnull align 8 captures(none) dereferenceable(66) %0) local_unnamed_addr #1 align 2 {
  %2 = getelementptr inbounds nuw i8, ptr %0, i64 64
  %3 = load i8, ptr %2, align 8, !tbaa !22, !range !24, !noundef !25
  %4 = trunc nuw i8 %3 to i1
  %5 = getelementptr inbounds nuw i8, ptr %0, i64 56
  %6 = load i32, ptr %5, align 8
  br i1 %4, label %10, label %7

7:                                                ; preds = %1
  %8 = tail call noalias dereferenceable_or_null(40) ptr @uprv_malloc_77(i64 noundef 40) #27
  %9 = getelementptr inbounds nuw i8, ptr %0, i64 48
  store ptr %8, ptr %9, align 8, !tbaa !26
  store i32 40, ptr %5, align 8, !tbaa !26
  tail call void @llvm.memset.p0.i64(ptr noundef nonnull align 1 dereferenceable(40) %8, i8 0, i64 40, i1 false)
  br label %_ZN6icu_776number4impl15DecimalQuantity14ensureCapacityEi.exit

10:                                               ; preds = %1
  %11 = icmp slt i32 %6, 40
  br i1 %11, label %12, label %_ZN6icu_776number4impl15DecimalQuantity14ensureCapacityEi.exit

12:                                               ; preds = %10
  %13 = tail call noalias dereferenceable_or_null(80) ptr @uprv_malloc_77(i64 noundef 80) #27
  %14 = getelementptr inbounds nuw i8, ptr %0, i64 48
  %15 = load ptr, ptr %14, align 8, !tbaa !26
  %16 = sext i32 %6 to i64
  tail call void @llvm.memcpy.p0.p0.i64(ptr align 1 %13, ptr align 1 %15, i64 %16, i1 false)
  %17 = getelementptr inbounds i8, ptr %13, i64 %16
  %18 = sub nsw i32 40, %6
  %19 = zext nneg i32 %18 to i64
  tail call void @llvm.memset.p0.i64(ptr align 1 %17, i8 0, i64 %19, i1 false)
  tail call void @uprv_free_77(ptr noundef %15)
  store ptr %13, ptr %14, align 8, !tbaa !26
  store i32 80, ptr %5, align 8, !tbaa !26
  br label %_ZN6icu_776number4impl15DecimalQuantity14ensureCapacityEi.exit

_ZN6icu_776number4impl15DecimalQuantity14ensureCapacityEi.exit: ; preds = %7, %10, %12
  store i8 1, ptr %2, align 8, !tbaa !22
  ret void
}